target datalayout = "e-m:e-p270:32:32-p271:32:32-p272:64:64-i64:64-i128:128-f80:128-n8:16:32:64-S128"
target triple = "x86_64-pc-linux-gnu"

%struct.pack_info = type { float, i32, i32, i8, i32, ptr, ptr, i32 }

; Function Attrs: nounwind uwtable
define i32 @packGraphs(i64 noundef %0, ptr noundef %1, ptr noundef %2, ptr noundef %3) #0 {
  %5 = alloca i32, align 4
  %6 = alloca i64, align 8
  %7 = alloca ptr, align 8
  %8 = alloca ptr, align 8
  %9 = alloca ptr, align 8
  %10 = alloca i32, align 4
  %11 = alloca ptr, align 8
  %12 = alloca i32, align 4
  store i64 %0, ptr %6, align 8, !tbaa !3
  store ptr %1, ptr %7, align 8, !tbaa !7
  store ptr %2, ptr %8, align 8, !tbaa !10
  store ptr %3, ptr %9, align 8, !tbaa !12
  call void @llvm.lifetime.start.p0(i64 4, ptr %10) #12
  call void @llvm.lifetime.start.p0(i64 8, ptr %11) #12
  %13 = load i64, ptr %6, align 8, !tbaa !3
  %14 = load ptr, ptr %7, align 8, !tbaa !7
  %15 = load ptr, ptr %8, align 8, !tbaa !10
  %16 = load ptr, ptr %9, align 8, !tbaa !12
  %17 = call ptr @putGraphs(i64 noundef %13, ptr noundef %14, ptr noundef %15, ptr noundef %16)
  store ptr %17, ptr %11, align 8, !tbaa !13
  %18 = load ptr, ptr %11, align 8, !tbaa !13
  %19 = icmp ne ptr %18, null
  br i1 %19, label %21, label %20

20:                                               ; preds = %4
  store i32 1, ptr %5, align 4
  store i32 1, ptr %12, align 4
  br label %33

21:                                               ; preds = %4
  %22 = load i64, ptr %6, align 8, !tbaa !3
  %23 = load ptr, ptr %7, align 8, !tbaa !7
  %24 = load ptr, ptr %11, align 8, !tbaa !13
  %25 = load ptr, ptr %8, align 8, !tbaa !10
  %26 = load ptr, ptr %9, align 8, !tbaa !12
  %27 = getelementptr inbounds nuw %struct.pack_info, ptr %26, i32 0, i32 3
  %28 = load i8, ptr %27, align 4, !tbaa !151, !range !40, !noundef !41
  %29 = trunc i8 %28 to i1
  %30 = call i32 @shiftGraphs(i64 noundef %22, ptr noundef %23, ptr noundef %24, ptr noundef %25, i1 noundef zeroext %29)
  store i32 %30, ptr %10, align 4, !tbaa !35
  %31 = load ptr, ptr %11, align 8, !tbaa !13
  call void @free(ptr noundef %31) #12
  %32 = load i32, ptr %10, align 4, !tbaa !35
  store i32 %32, ptr %5, align 4
  store i32 1, ptr %12, align 4
  br label %33

33:                                               ; preds = %21, %20
  call void @llvm.lifetime.end.p0(i64 8, ptr %11) #12
  call void @llvm.lifetime.end.p0(i64 4, ptr %10) #12
  %34 = load i32, ptr %5, align 4
  ret i32 %34
}