; Function Attrs: nounwind uwtable
define range(i32 0, 2) i32 @packGraphs(i64 noundef %0, ptr noundef readonly captures(none) %1, ptr noundef %2, ptr noundef captures(none) %3) local_unnamed_addr #0 {
  %5 = tail call ptr @putGraphs(i64 noundef %0, ptr noundef %1, ptr noundef %2, ptr noundef %3)
  %.not = icmp eq ptr %5, null
  br i1 %.not, label %11, label %6

6:                                                ; preds = %4
  %7 = getelementptr inbounds nuw i8, ptr %3, i64 12
  %8 = load i8, ptr %7, align 4, !tbaa !57, !range !19, !noundef !20
  %9 = trunc nuw i8 %8 to i1
  %10 = tail call i32 @shiftGraphs(i64 noundef %0, ptr noundef %1, ptr noundef nonnull %5, ptr noundef %2, i1 noundef zeroext %9)
  tail call void @free(ptr noundef nonnull %5) #19
  br label %11

11:                                               ; preds = %4, %6
  %.0 = phi i32 [ 0, %6 ], [ 1, %4 ]
  ret i32 %.0
}